target datalayout = "e-m:e-p270:32:32-p271:32:32-p272:64:64-i64:64-i128:128-f80:128-n8:16:32:64-S128"
target triple = "x86_64-pc-linux-gnu"

%struct.curl_slist = type { ptr, ptr }

@Curl_cmalloc = external global ptr, align 8
@Curl_cstrdup = external global ptr, align 8
@Curl_cfree = external global ptr, align 8

; Function Attrs: nounwind uwtable
define dso_local ptr @Curl_slist_append_nodup(ptr noundef %0, ptr noundef %1) #0 {
  %3 = alloca ptr, align 8
  %4 = alloca ptr, align 8
  %5 = alloca ptr, align 8
  %6 = alloca ptr, align 8
  %7 = alloca ptr, align 8
  %8 = alloca i32, align 4
  store ptr %0, ptr %4, align 8, !tbaa !4
  store ptr %1, ptr %5, align 8, !tbaa !9
  call void @llvm.lifetime.start.p0(i64 8, ptr %6) #2
  call void @llvm.lifetime.start.p0(i64 8, ptr %7) #2
  br label %9

9:                                                ; preds = %2
  br label %10

10:                                               ; preds = %9
  br label %11

11:                                               ; preds = %10
  %12 = load ptr, ptr @Curl_cmalloc, align 8, !tbaa !11
  %13 = call ptr %12(i64 noundef 16)
  store ptr %13, ptr %7, align 8, !tbaa !4
  %14 = load ptr, ptr %7, align 8, !tbaa !4
  %15 = icmp ne ptr %14, null
  br i1 %15, label %17, label %16

16:                                               ; preds = %11
  store ptr null, ptr %3, align 8
  store i32 1, ptr %8, align 4
  br label %34

17:                                               ; preds = %11
  %18 = load ptr, ptr %7, align 8, !tbaa !4
  %19 = getelementptr inbounds nuw %struct.curl_slist, ptr %18, i32 0, i32 1
  store ptr null, ptr %19, align 8, !tbaa !12
  %20 = load ptr, ptr %5, align 8, !tbaa !9
  %21 = load ptr, ptr %7, align 8, !tbaa !4
  %22 = getelementptr inbounds nuw %struct.curl_slist, ptr %21, i32 0, i32 0
  store ptr %20, ptr %22, align 8, !tbaa !14
  %23 = load ptr, ptr %4, align 8, !tbaa !4
  %24 = icmp ne ptr %23, null
  br i1 %24, label %27, label %25

25:                                               ; preds = %17
  %26 = load ptr, ptr %7, align 8, !tbaa !4
  store ptr %26, ptr %3, align 8
  store i32 1, ptr %8, align 4
  br label %34

27:                                               ; preds = %17
  %28 = load ptr, ptr %4, align 8, !tbaa !4
  %29 = call ptr @slist_get_last(ptr noundef %28)
  store ptr %29, ptr %6, align 8, !tbaa !4
  %30 = load ptr, ptr %7, align 8, !tbaa !4
  %31 = load ptr, ptr %6, align 8, !tbaa !4
  %32 = getelementptr inbounds nuw %struct.curl_slist, ptr %31, i32 0, i32 1
  store ptr %30, ptr %32, align 8, !tbaa !12
  %33 = load ptr, ptr %4, align 8, !tbaa !4
  store ptr %33, ptr %3, align 8
  store i32 1, ptr %8, align 4
  br label %34

34:                                               ; preds = %27, %25, %16
  call void @llvm.lifetime.end.p0(i64 8, ptr %7) #2
  call void @llvm.lifetime.end.p0(i64 8, ptr %6) #2
  %35 = load ptr, ptr %3, align 8
  ret ptr %35
}

; Function Attrs: nocallback nofree nosync nounwind willreturn memory(argmem: readwrite)
declare void @llvm.lifetime.start.p0(i64 immarg, ptr captures(none)) #1

; Function Attrs: nounwind uwtable
define internal ptr @slist_get_last(ptr noundef %0) #0 {
  %2 = alloca ptr, align 8
  %3 = alloca ptr, align 8
  %4 = alloca ptr, align 8
  %5 = alloca i32, align 4
  store ptr %0, ptr %3, align 8, !tbaa !4
  call void @llvm.lifetime.start.p0(i64 8, ptr %4) #2
  %6 = load ptr, ptr %3, align 8, !tbaa !4
  %7 = icmp ne ptr %6, null
  br i1 %7, label %9, label %8

8:                                                ; preds = %1
  store ptr null, ptr %2, align 8
  store i32 1, ptr %5, align 4
  br label %22

9:                                                ; preds = %1
  %10 = load ptr, ptr %3, align 8, !tbaa !4
  store ptr %10, ptr %4, align 8, !tbaa !4
  br label %11

11:                                               ; preds = %16, %9
  %12 = load ptr, ptr %4, align 8, !tbaa !4
  %13 = getelementptr inbounds nuw %struct.curl_slist, ptr %12, i32 0, i32 1
  %14 = load ptr, ptr %13, align 8, !tbaa !12
  %15 = icmp ne ptr %14, null
  br i1 %15, label %16, label %20

16:                                               ; preds = %11
  %17 = load ptr, ptr %4, align 8, !tbaa !4
  %18 = getelementptr inbounds nuw %struct.curl_slist, ptr %17, i32 0, i32 1
  %19 = load ptr, ptr %18, align 8, !tbaa !12
  store ptr %19, ptr %4, align 8, !tbaa !4
  br label %11, !llvm.loop !15

20:                                               ; preds = %11
  %21 = load ptr, ptr %4, align 8, !tbaa !4
  store ptr %21, ptr %2, align 8
  store i32 1, ptr %5, align 4
  br label %22

22:                                               ; preds = %20, %8
  call void @llvm.lifetime.end.p0(i64 8, ptr %4) #2
  %23 = load ptr, ptr %2, align 8
  ret ptr %23
}

; Function Attrs: nocallback nofree nosync nounwind willreturn memory(argmem: readwrite)
declare void @llvm.lifetime.end.p0(i64 immarg, ptr captures(none)) #1

; Function Attrs: nounwind uwtable
define dso_local ptr @curl_slist_append(ptr noundef %0, ptr noundef %1) #0 {
  %3 = alloca ptr, align 8
  %4 = alloca ptr, align 8
  %5 = alloca ptr, align 8
  %6 = alloca ptr, align 8
  %7 = alloca i32, align 4
  store ptr %0, ptr %4, align 8, !tbaa !4
  store ptr %1, ptr %5, align 8, !tbaa !9
  call void @llvm.lifetime.start.p0(i64 8, ptr %6) #2
  %8 = load ptr, ptr @Curl_cstrdup, align 8, !tbaa !11
  %9 = load ptr, ptr %5, align 8, !tbaa !9
  %10 = call ptr %8(ptr noundef %9)
  store ptr %10, ptr %6, align 8, !tbaa !9
  %11 = load ptr, ptr %6, align 8, !tbaa !9
  %12 = icmp ne ptr %11, null
  br i1 %12, label %14, label %13

13:                                               ; preds = %2
  store ptr null, ptr %3, align 8
  store i32 1, ptr %7, align 4
  br label %25

14:                                               ; preds = %2
  %15 = load ptr, ptr %4, align 8, !tbaa !4
  %16 = load ptr, ptr %6, align 8, !tbaa !9
  %17 = call ptr @Curl_slist_append_nodup(ptr noundef %15, ptr noundef %16)
  store ptr %17, ptr %4, align 8, !tbaa !4
  %18 = load ptr, ptr %4, align 8, !tbaa !4
  %19 = icmp ne ptr %18, null
  br i1 %19, label %23, label %20

20:                                               ; preds = %14
  %21 = load ptr, ptr @Curl_cfree, align 8, !tbaa !11
  %22 = load ptr, ptr %6, align 8, !tbaa !9
  call void %21(ptr noundef %22)
  br label %23

23:                                               ; preds = %20, %14
  %24 = load ptr, ptr %4, align 8, !tbaa !4
  store ptr %24, ptr %3, align 8
  store i32 1, ptr %7, align 4
  br label %25

25:                                               ; preds = %23, %13
  call void @llvm.lifetime.end.p0(i64 8, ptr %6) #2
  %26 = load ptr, ptr %3, align 8
  ret ptr %26
}

; Function Attrs: nounwind uwtable
define dso_local ptr @Curl_slist_duplicate(ptr noundef %0) #0 {
  %2 = alloca ptr, align 8
  %3 = alloca ptr, align 8
  %4 = alloca ptr, align 8
  %5 = alloca ptr, align 8
  %6 = alloca i32, align 4
  store ptr %0, ptr %3, align 8, !tbaa !4
  call void @llvm.lifetime.start.p0(i64 8, ptr %4) #2
  store ptr null, ptr %4, align 8, !tbaa !4
  call void @llvm.lifetime.start.p0(i64 8, ptr %5) #2
  br label %7

7:                                                ; preds = %20, %1
  %8 = load ptr, ptr %3, align 8, !tbaa !4
  %9 = icmp ne ptr %8, null
  br i1 %9, label %10, label %25

10:                                               ; preds = %7
  %11 = load ptr, ptr %4, align 8, !tbaa !4
  %12 = load ptr, ptr %3, align 8, !tbaa !4
  %13 = getelementptr inbounds nuw %struct.curl_slist, ptr %12, i32 0, i32 0
  %14 = load ptr, ptr %13, align 8, !tbaa !14
  %15 = call ptr @curl_slist_append(ptr noundef %11, ptr noundef %14)
  store ptr %15, ptr %5, align 8, !tbaa !4
  %16 = load ptr, ptr %5, align 8, !tbaa !4
  %17 = icmp ne ptr %16, null
  br i1 %17, label %20, label %18

18:                                               ; preds = %10
  %19 = load ptr, ptr %4, align 8, !tbaa !4
  call void @curl_slist_free_all(ptr noundef %19)
  store ptr null, ptr %2, align 8
  store i32 1, ptr %6, align 4
  br label %27

20:                                               ; preds = %10
  %21 = load ptr, ptr %5, align 8, !tbaa !4
  store ptr %21, ptr %4, align 8, !tbaa !4
  %22 = load ptr, ptr %3, align 8, !tbaa !4
  %23 = getelementptr inbounds nuw %struct.curl_slist, ptr %22, i32 0, i32 1
  %24 = load ptr, ptr %23, align 8, !tbaa !12
  store ptr %24, ptr %3, align 8, !tbaa !4
  br label %7, !llvm.loop !17

25:                                               ; preds = %7
  %26 = load ptr, ptr %4, align 8, !tbaa !4
  store ptr %26, ptr %2, align 8
  store i32 1, ptr %6, align 4
  br label %27

27:                                               ; preds = %25, %18
  call void @llvm.lifetime.end.p0(i64 8, ptr %5) #2
  call void @llvm.lifetime.end.p0(i64 8, ptr %4) #2
  %28 = load ptr, ptr %2, align 8
  ret ptr %28
}

; Function Attrs: nounwind uwtable
define dso_local void @curl_slist_free_all(ptr noundef %0) #0 {
  %2 = alloca ptr, align 8
  %3 = alloca ptr, align 8
  %4 = alloca ptr, align 8
  %5 = alloca i32, align 4
  store ptr %0, ptr %2, align 8, !tbaa !4
  call void @llvm.lifetime.start.p0(i64 8, ptr %3) #2
  call void @llvm.lifetime.start.p0(i64 8, ptr %4) #2
  %6 = load ptr, ptr %2, align 8, !tbaa !4
  %7 = icmp ne ptr %6, null
  br i1 %7, label %9, label %8

8:                                                ; preds = %1
  store i32 1, ptr %5, align 4
  br label %31

9:                                                ; preds = %1
  %10 = load ptr, ptr %2, align 8, !tbaa !4
  store ptr %10, ptr %4, align 8, !tbaa !4
  br label %11

11:                                               ; preds = %27, %9
  %12 = load ptr, ptr %4, align 8, !tbaa !4
  %13 = getelementptr inbounds nuw %struct.curl_slist, ptr %12, i32 0, i32 1
  %14 = load ptr, ptr %13, align 8, !tbaa !12
  store ptr %14, ptr %3, align 8, !tbaa !4
  br label %15

15:                                               ; preds = %11
  %16 = load ptr, ptr @Curl_cfree, align 8, !tbaa !11
  %17 = load ptr, ptr %4, align 8, !tbaa !4
  %18 = getelementptr inbounds nuw %struct.curl_slist, ptr %17, i32 0, i32 0
  %19 = load ptr, ptr %18, align 8, !tbaa !14
  call void %16(ptr noundef %19)
  %20 = load ptr, ptr %4, align 8, !tbaa !4
  %21 = getelementptr inbounds nuw %struct.curl_slist, ptr %20, i32 0, i32 0
  store ptr null, ptr %21, align 8, !tbaa !14
  br label %22

22:                                               ; preds = %15
  br label %23

23:                                               ; preds = %22
  %24 = load ptr, ptr @Curl_cfree, align 8, !tbaa !11
  %25 = load ptr, ptr %4, align 8, !tbaa !4
  call void %24(ptr noundef %25)
  %26 = load ptr, ptr %3, align 8, !tbaa !4
  store ptr %26, ptr %4, align 8, !tbaa !4
  br label %27

27:                                               ; preds = %23
  %28 = load ptr, ptr %3, align 8, !tbaa !4
  %29 = icmp ne ptr %28, null
  br i1 %29, label %11, label %30, !llvm.loop !18

30:                                               ; preds = %27
  store i32 0, ptr %5, align 4
  br label %31

31:                                               ; preds = %30, %8
  call void @llvm.lifetime.end.p0(i64 8, ptr %4) #2
  call void @llvm.lifetime.end.p0(i64 8, ptr %3) #2
  %32 = load i32, ptr %5, align 4
  switch i32 %32, label %34 [
    i32 0, label %33
    i32 1, label %33
  ]

33:                                               ; preds = %31, %31
  ret void

34:                                               ; preds = %31
  unreachable
}


!llvm.module.flags = !{!0, !1, !2, !3}

!0 = !{i32 1, !"wchar_size", i32 4}
!1 = !{i32 8, !"PIC Level", i32 2}
!2 = !{i32 7, !"PIE Level", i32 2}
!3 = !{i32 7, !"uwtable", i32 2}
!4 = !{!5, !5, i64 0}
!5 = !{!"p1 _ZTS10curl_slist", !6, i64 0}
!6 = !{!"any pointer", !7, i64 0}
!7 = !{!"omnipotent char", !8, i64 0}
!8 = !{!"Simple C/C++ TBAA"}
!9 = !{!10, !10, i64 0}
!10 = !{!"p1 omnipotent char", !6, i64 0}
!11 = !{!6, !6, i64 0}
!12 = !{!13, !5, i64 8}
!13 = !{!"curl_slist", !10, i64 0, !5, i64 8}
!14 = !{!13, !10, i64 0}
!15 = distinct !{!15, !16}
!16 = !{!"llvm.loop.mustprogress"}
!17 = distinct !{!17, !16}
!18 = distinct !{!18, !16}
